Certificate:
    Data:
        Version: 3 (0x2)
        Serial Number: 2 (0x2)
        Signature Algorithm: md5WithRSAEncryption
        Issuer: C=C1, ST=c1state, L=c1local, O=c1org, OU=c1unit, CN=c1common/emailAddress=c1@c1.com
        Validity
            Not Before: Aug 27 11:38:30 2007 GMT
            Not After : Aug 26 11:38:30 2008 GMT
        Subject: C=C2, ST=C2state, L=c2Local, O=c2ORG, OU=c2Unit, CN=c2Common/emailAddress=c2@c2.com
        Subject Public Key Info:
            Public Key Algorithm: rsaEncryption
            RSA Public Key: (1024 bit)
                Modulus (1024 bit):
                    00:9b:65:67:57:b9:b5:5f:91:95:76:75:ec:a0:05:
                    87:d4:ee:73:c1:4b:6c:3e:69:74:38:30:27:93:f2:
                    7a:5a:ae:d2:a6:7a:fb:d2:4d:86:d3:eb:cd:49:2e:
                    34:49:4d:c9:a7:4a:44:3f:ab:b5:b3:e6:db:64:25:
                    78:1c:44:d2:f8:70:46:7b:2d:74:1f:e7:9c:1c:bd:
                    65:66:d0:3f:12:85:da:d0:68:5f:27:c9:9a:5c:17:
                    02:78:8c:44:0a:64:bb:ed:94:f0:32:9b:8d:7e:03:
                    f8:ed:6a:ea:13:a8:51:f8:7f:c5:ea:cf:7c:7b:6d:
                    09:37:94:3c:0d:2d:df:d0:47
                Exponent: 65537 (0x10001)
        X509v3 extensions:
            X509v3 Basic Constraints: 
                CA:FALSE
            Netscape Comment: 
                OpenSSL Generated Certificate
            X509v3 Subject Key Identifier: 
                2C:E6:11:5C:0F:36:50:07:DB:42:17:80:DB:AB:DC:56:10:8B:E3:A4
            X509v3 Authority Key Identifier: 
                DirName:/C=CA/ST=CAstate/L=CAname/O=CAorg/OU=CAunit/CN=CAman/emailAddress=ca@ca.com
                serial:01

    Signature Algorithm: md5WithRSAEncryption
        a2:92:e6:44:36:24:8d:5a:98:ec:d5:fb:19:f5:b0:cb:0e:64:
        d2:54:7c:61:72:b7:e0:0b:33:85:c3:af:00:d3:47:db:a2:74:
        0c:51:1e:a4:e1:3b:a3:2f:99:53:b6:96:17:48:71:c4:89:c4:
        87:f7:89:4d:b2:be:5f:4c:90:80:d1:3b:b9:4d:5d:80:3d:8d:
        53:78:0b:89:de:23:58:9c:07:aa:17:9a:5a:69:d6:0c:af:66:
        c9:08:f3:7a:c2:5a:68:65:eb:ac:c7:0e:88:fa:18:23:06:a6:
        e9:cc:01:8d:30:82:91:13:42:27:f0:3b:c9:86:da:56:50:27:
        af:43
-----BEGIN CERTIFICATE-----
MIIDYjCCAsugAwIBAgIBAjANBgkqhkiG9w0BAQQFADB/MQswCQYDVQQGEwJDMTEQ
MA4GA1UECBMHYzFzdGF0ZTEQMA4GA1UEBxMHYzFsb2NhbDEOMAwGA1UEChMFYzFv
cmcxDzANBgNVBAsTBmMxdW5pdDERMA8GA1UEAxMIYzFjb21tb24xGDAWBgkqhkiG
9w0BCQEWCWMxQGMxLmNvbTAeFw0wNzA4MjcxMTM4MzBaFw0wODA4MjYxMTM4MzBa
MH8xCzAJBgNVBAYTAkMyMRAwDgYDVQQIEwdDMnN0YXRlMRAwDgYDVQQHEwdjMkxv
Y2FsMQ4wDAYDVQQKEwVjMk9SRzEPMA0GA1UECxMGYzJVbml0MREwDwYDVQQDEwhj
MkNvbW1vbjEYMBYGCSqGSIb3DQEJARYJYzJAYzIuY29tMIGfMA0GCSqGSIb3DQEB
AQUAA4GNADCBiQKBgQCbZWdXubVfkZV2deygBYfU7nPBS2w+aXQ4MCeT8npartKm
evvSTYbT681JLjRJTcmnSkQ/q7Wz5ttkJXgcRNL4cEZ7LXQf55wcvWVm0D8ShdrQ
aF8nyZpcFwJ4jEQKZLvtlPAym41+A/jtauoTqFH4f8Xqz3x7bQk3lDwNLd/QRwID
AQABo4HtMIHqMAkGA1UdEwQCMAAwLAYJYIZIAYb4QgENBB8WHU9wZW5TU0wgR2Vu
ZXJhdGVkIENlcnRpZmljYXRlMB0GA1UdDgQWBBQs5hFcDzZQB9tCF4Dbq9xWEIvj
pDCBjwYDVR0jBIGHMIGEoX+kfTB7MQswCQYDVQQGEwJDQTEQMA4GA1UECBMHQ0Fz
dGF0ZTEPMA0GA1UEBxMGQ0FuYW1lMQ4wDAYDVQQKEwVDQW9yZzEPMA0GA1UECxMG
Q0F1bml0MQ4wDAYDVQQDEwVDQW1hbjEYMBYGCSqGSIb3DQEJARYJY2FAY2EuY29t
ggEBMA0GCSqGSIb3DQEBBAUAA4GBAKKS5kQ2JI1amOzV+xn1sMsOZNJUfGFyt+AL
M4XDrwDTR9uidAxRHqThO6MvmVO2lhdIccSJxIf3iU2yvl9MkIDRO7lNXYA9jVN4
C4neI1icB6oXmlpp1gyvZskI83rCWmhl66zHDoj6GCMGpunMAY0wgpETQifwO8mG
2lZQJ69D
-----END CERTIFICATE-----
