Certificate:
    Data:
        Version: 3 (0x2)
        Serial Number: 1 (0x1)
        Signature Algorithm: md5WithRSAEncryption
        Issuer: C=CA, ST=CAstate, L=CAname, O=CAorg, OU=CAunit, CN=CAman/emailAddress=ca@ca.com
        Validity
            Not Before: Aug 27 11:27:07 2007 GMT
            Not After : Aug 26 11:27:07 2008 GMT
        Subject: C=C1, ST=c1state, L=c1local, O=c1org, OU=c1unit, CN=c1common/emailAddress=c1@c1.com
        Subject Public Key Info:
            Public Key Algorithm: rsaEncryption
            RSA Public Key: (1024 bit)
                Modulus (1024 bit):
                    00:c7:7e:31:df:13:a9:55:d0:79:c2:c5:45:c2:12:
                    17:56:6a:4d:01:56:af:4c:29:aa:dc:4c:f0:2e:b6:
                    c5:07:98:39:ea:e0:a6:7e:ee:17:1c:ee:b7:5f:d5:
                    d1:bf:3b:ef:9e:c6:b0:d9:65:73:5e:a0:f0:ad:ee:
                    40:b0:6c:67:2a:f6:4c:d8:c1:d2:48:90:5e:c2:9c:
                    8f:c1:cd:41:90:aa:e7:23:48:bf:4a:4a:ca:45:04:
                    5d:bf:5e:86:e4:ca:2f:05:42:ff:25:cc:71:b0:64:
                    4a:50:1c:41:9e:e1:8e:f0:47:38:9e:14:0d:25:f0:
                    a2:31:c5:df:86:f0:0a:cf:a3
                Exponent: 65537 (0x10001)
        X509v3 extensions:
            X509v3 Basic Constraints: 
                CA:TRUE
    Signature Algorithm: md5WithRSAEncryption
        7a:fc:4d:91:00:b6:0a:74:34:f2:a7:cf:34:e2:c1:8d:3f:39:
        b4:b9:9f:74:97:45:1a:be:1b:50:21:ea:94:08:1a:a6:89:7c:
        11:d0:e8:24:ec:8f:f1:25:a6:fa:e2:a0:02:f9:ab:f5:24:37:
        45:d3:cc:10:d7:b3:d3:6d:fa:48:e7:8b:a1:0d:53:60:c7:d4:
        bb:db:cc:c1:59:ca:37:bf:20:c1:9e:34:15:5c:9a:5c:15:89:
        af:b2:5c:c6:ce:cd:13:4b:90:b8:57:d0:40:8e:c9:1f:8b:62:
        14:e0:59:34:68:3e:b8:d7:f2:f1:f4:5d:45:77:5b:9e:b8:d7:
        ac:18
-----BEGIN CERTIFICATE-----
MIICgDCCAemgAwIBAgIBATANBgkqhkiG9w0BAQQFADB7MQswCQYDVQQGEwJDQTEQ
MA4GA1UECBMHQ0FzdGF0ZTEPMA0GA1UEBxMGQ0FuYW1lMQ4wDAYDVQQKEwVDQW9y
ZzEPMA0GA1UECxMGQ0F1bml0MQ4wDAYDVQQDEwVDQW1hbjEYMBYGCSqGSIb3DQEJ
ARYJY2FAY2EuY29tMB4XDTA3MDgyNzExMjcwN1oXDTA4MDgyNjExMjcwN1owfzEL
MAkGA1UEBhMCQzExEDAOBgNVBAgTB2Mxc3RhdGUxEDAOBgNVBAcTB2MxbG9jYWwx
DjAMBgNVBAoTBWMxb3JnMQ8wDQYDVQQLEwZjMXVuaXQxETAPBgNVBAMTCGMxY29t
bW9uMRgwFgYJKoZIhvcNAQkBFgljMUBjMS5jb20wgZ8wDQYJKoZIhvcNAQEBBQAD
gY0AMIGJAoGBAMd+Md8TqVXQecLFRcISF1ZqTQFWr0wpqtxM8C62xQeYOergpn7u
Fxzut1/V0b87757GsNllc16g8K3uQLBsZyr2TNjB0kiQXsKcj8HNQZCq5yNIv0pK
ykUEXb9ehuTKLwVC/yXMcbBkSlAcQZ7hjvBHOJ4UDSXwojHF34bwCs+jAgMBAAGj
EDAOMAwGA1UdEwQFMAMBAf8wDQYJKoZIhvcNAQEEBQADgYEAevxNkQC2CnQ08qfP
NOLBjT85tLmfdJdFGr4bUCHqlAgapol8EdDoJOyP8SWm+uKgAvmr9SQ3RdPMENez
0236SOeLoQ1TYMfUu9vMwVnKN78gwZ40FVyaXBWJr7Jcxs7NE0uQuFfQQI7JH4ti
FOBZNGg+uNfy8fRdRXdbnrjXrBg=
-----END CERTIFICATE-----
